# SymbolsHelper-Confirmed: 5.12.2 amd64
libQt5HunspellInputMethod.so.5 libqt5hunspellinputmethod5 #MINVER#
* Build-Depends-Package: libqt5virtualkeyboard5-dev
 Qt_5_PRIVATE_API@Qt_5_PRIVATE_API 5.12.2
 _ZN17QtVirtualKeyboard16HunspellWordList10appendWordERK7QStringRK6QFlagsINS0_4FlagEE@Qt_5_PRIVATE_API 5.12.2
 _ZN17QtVirtualKeyboard16HunspellWordList10insertWordEiRK7QStringRK6QFlagsINS0_4FlagEE@Qt_5_PRIVATE_API 5.12.2
 _ZN17QtVirtualKeyboard16HunspellWordList10removeWordERK7QString@Qt_5_PRIVATE_API 5.12.2
 _ZN17QtVirtualKeyboard16HunspellWordList10updateWordEiRK7QStringRK6QFlagsINS0_4FlagEE@Qt_5_PRIVATE_API 5.12.2
 _ZN17QtVirtualKeyboard16HunspellWordList11indexOfWordERK7QString@Qt_5_PRIVATE_API 5.12.2
 _ZN17QtVirtualKeyboard16HunspellWordList11wordFlagsAtEi@Qt_5_PRIVATE_API 5.12.2
 _ZN17QtVirtualKeyboard16HunspellWordList12removeWordAtEi@Qt_5_PRIVATE_API 5.12.2
 _ZN17QtVirtualKeyboard16HunspellWordList16clearSuggestionsEv@Qt_5_PRIVATE_API 5.12.2
 _ZN17QtVirtualKeyboard16HunspellWordList18findWordCompletionERK7QString@Qt_5_PRIVATE_API 5.12.2
 _ZN17QtVirtualKeyboard16HunspellWordList18rebuildSearchIndexEv@Qt_5_PRIVATE_API 5.12.2
 _ZN17QtVirtualKeyboard16HunspellWordList5clearEv@Qt_5_PRIVATE_API 5.12.2
 _ZN17QtVirtualKeyboard16HunspellWordList6wordAtEi@Qt_5_PRIVATE_API 5.12.2
 _ZN17QtVirtualKeyboard16HunspellWordList6wordAtEiR7QStringR6QFlagsINS0_4FlagEE@Qt_5_PRIVATE_API 5.12.2
 _ZN17QtVirtualKeyboard16HunspellWordList8containsERK7QString@Qt_5_PRIVATE_API 5.12.2
 _ZN17QtVirtualKeyboard16HunspellWordList8moveWordEii@Qt_5_PRIVATE_API 5.12.2
 _ZN17QtVirtualKeyboard16HunspellWordList8setIndexEi@Qt_5_PRIVATE_API 5.12.2
 _ZN17QtVirtualKeyboard16HunspellWordListC1ERS0_@Qt_5_PRIVATE_API 5.12.2
 _ZN17QtVirtualKeyboard16HunspellWordListC1Ei@Qt_5_PRIVATE_API 5.12.2
 _ZN17QtVirtualKeyboard16HunspellWordListC2ERS0_@Qt_5_PRIVATE_API 5.12.2
 _ZN17QtVirtualKeyboard16HunspellWordListC2Ei@Qt_5_PRIVATE_API 5.12.2
 _ZN17QtVirtualKeyboard16HunspellWordListaSERS0_@Qt_5_PRIVATE_API 5.12.2
 _ZN17QtVirtualKeyboard19HunspellInputMethod10inputModesERK7QString@Qt_5_PRIVATE_API 5.12.2
 _ZN17QtVirtualKeyboard19HunspellInputMethod11qt_metacallEN11QMetaObject4CallEiPPv@Qt_5_PRIVATE_API 5.12.2
 _ZN17QtVirtualKeyboard19HunspellInputMethod11qt_metacastEPKc@Qt_5_PRIVATE_API 5.12.2
 _ZN17QtVirtualKeyboard19HunspellInputMethod11setTextCaseEN27QVirtualKeyboardInputEngine8TextCaseE@Qt_5_PRIVATE_API 5.12.2
 _ZN17QtVirtualKeyboard19HunspellInputMethod12setInputModeERK7QStringN27QVirtualKeyboardInputEngine9InputModeE@Qt_5_PRIVATE_API 5.12.2
 _ZN17QtVirtualKeyboard19HunspellInputMethod14selectionListsEv@Qt_5_PRIVATE_API 5.12.2
 _ZN17QtVirtualKeyboard19HunspellInputMethod16staticMetaObjectE@Qt_5_PRIVATE_API 5.12.2
 _ZN17QtVirtualKeyboard19HunspellInputMethod17selectionListDataEN34QVirtualKeyboardSelectionListModel4TypeEiNS1_4RoleE@Qt_5_PRIVATE_API 5.12.2
 _ZN17QtVirtualKeyboard19HunspellInputMethod17updateSuggestionsERK14QSharedPointerINS_16HunspellWordListEEi@Qt_5_PRIVATE_API 5.12.2
 _ZN17QtVirtualKeyboard19HunspellInputMethod22selectionListItemCountEN34QVirtualKeyboardSelectionListModel4TypeE@Qt_5_PRIVATE_API 5.12.2
 _ZN17QtVirtualKeyboard19HunspellInputMethod23dictionaryLoadCompletedEb@Qt_5_PRIVATE_API 5.12.2
 _ZN17QtVirtualKeyboard19HunspellInputMethod23selectionListRemoveItemEN34QVirtualKeyboardSelectionListModel4TypeEi@Qt_5_PRIVATE_API 5.12.2
 _ZN17QtVirtualKeyboard19HunspellInputMethod25selectionListItemSelectedEN34QVirtualKeyboardSelectionListModel4TypeEi@Qt_5_PRIVATE_API 5.12.2
 _ZN17QtVirtualKeyboard19HunspellInputMethod5resetEv@Qt_5_PRIVATE_API 5.12.2
 _ZN17QtVirtualKeyboard19HunspellInputMethod6updateEv@Qt_5_PRIVATE_API 5.12.2
 _ZN17QtVirtualKeyboard19HunspellInputMethod8keyEventEN2Qt3KeyERK7QString6QFlagsINS1_16KeyboardModifierEE@Qt_5_PRIVATE_API 5.12.2
 _ZN17QtVirtualKeyboard19HunspellInputMethod8reselectEiRK6QFlagsIN27QVirtualKeyboardInputEngine12ReselectFlagEE@Qt_5_PRIVATE_API 5.12.2
 _ZN17QtVirtualKeyboard19HunspellInputMethodC1EP7QObject@Qt_5_PRIVATE_API 5.12.2
 _ZN17QtVirtualKeyboard19HunspellInputMethodC1EPNS_26HunspellInputMethodPrivateEP7QObject@Qt_5_PRIVATE_API 5.12.2
 _ZN17QtVirtualKeyboard19HunspellInputMethodC2EP7QObject@Qt_5_PRIVATE_API 5.12.2
 _ZN17QtVirtualKeyboard19HunspellInputMethodC2EPNS_26HunspellInputMethodPrivateEP7QObject@Qt_5_PRIVATE_API 5.12.2
 _ZN17QtVirtualKeyboard19HunspellInputMethodD0Ev@Qt_5_PRIVATE_API 5.12.2
 _ZN17QtVirtualKeyboard19HunspellInputMethodD1Ev@Qt_5_PRIVATE_API 5.12.2
 _ZN17QtVirtualKeyboard19HunspellInputMethodD2Ev@Qt_5_PRIVATE_API 5.12.2
 _ZN17QtVirtualKeyboard26HunspellInputMethodPrivate14createHunspellERK7QString@Qt_5_PRIVATE_API 5.12.2
 _ZN17QtVirtualKeyboard26HunspellInputMethodPrivate15addToDictionaryEv@Qt_5_PRIVATE_API 5.12.2
 _ZN17QtVirtualKeyboard26HunspellInputMethodPrivate16clearSuggestionsEb@Qt_5_PRIVATE_API 5.12.2
 _ZN17QtVirtualKeyboard26HunspellInputMethodPrivate17updateSuggestionsEv@Qt_5_PRIVATE_API 5.12.2
 _ZN17QtVirtualKeyboard26HunspellInputMethodPrivate20removeFromDictionaryERK7QString@Qt_5_PRIVATE_API 5.12.2
 _ZN17QtVirtualKeyboard26HunspellInputMethodPrivate21userDictionaryMaxSizeE@Qt_5_PRIVATE_API 5.12.2
 _ZN17QtVirtualKeyboard26HunspellInputMethodPrivate28clearSuggestionsRelatedTasksEv@Qt_5_PRIVATE_API 5.12.2
 _ZN17QtVirtualKeyboard26HunspellInputMethodPrivate5resetEv@Qt_5_PRIVATE_API 5.12.2
 _ZN17QtVirtualKeyboard26HunspellInputMethodPrivateC1EPNS_19HunspellInputMethodE@Qt_5_PRIVATE_API 5.12.2
 _ZN17QtVirtualKeyboard26HunspellInputMethodPrivateC2EPNS_19HunspellInputMethodE@Qt_5_PRIVATE_API 5.12.2
 _ZN17QtVirtualKeyboard26HunspellInputMethodPrivateD1Ev@Qt_5_PRIVATE_API 5.12.2
 _ZN17QtVirtualKeyboard26HunspellInputMethodPrivateD2Ev@Qt_5_PRIVATE_API 5.12.2
 _ZNK17QtVirtualKeyboard16HunspellWordList14hasSuggestionsEv@Qt_5_PRIVATE_API 5.12.2
 _ZNK17QtVirtualKeyboard16HunspellWordList4sizeEv@Qt_5_PRIVATE_API 5.12.2
 _ZNK17QtVirtualKeyboard16HunspellWordList5indexEv@Qt_5_PRIVATE_API 5.12.2
 _ZNK17QtVirtualKeyboard16HunspellWordList7isEmptyEv@Qt_5_PRIVATE_API 5.12.2
 _ZNK17QtVirtualKeyboard19HunspellInputMethod10metaObjectEv@Qt_5_PRIVATE_API 5.12.2
 _ZNK17QtVirtualKeyboard26HunspellInputMethodPrivate13addToHunspellERK14QSharedPointerINS_16HunspellWordListEE@Qt_5_PRIVATE_API 5.12.2
 _ZNK17QtVirtualKeyboard26HunspellInputMethodPrivate16isValidInputCharERK5QChar@Qt_5_PRIVATE_API 5.12.2
 _ZNK17QtVirtualKeyboard26HunspellInputMethodPrivate18isAutoSpaceAllowedEv@Qt_5_PRIVATE_API 5.12.2
 _ZNK17QtVirtualKeyboard26HunspellInputMethodPrivate18removeFromHunspellERK14QSharedPointerINS_16HunspellWordListEE@Qt_5_PRIVATE_API 5.12.2
 _ZNK17QtVirtualKeyboard26HunspellInputMethodPrivate20loadCustomDictionaryERK14QSharedPointerINS_16HunspellWordListEERK7QString@Qt_5_PRIVATE_API 5.12.2
 _ZNK17QtVirtualKeyboard26HunspellInputMethodPrivate20saveCustomDictionaryERK14QSharedPointerINS_16HunspellWordListEERK7QString@Qt_5_PRIVATE_API 5.12.2
 _ZNK17QtVirtualKeyboard26HunspellInputMethodPrivate24customDictionaryLocationERK7QString@Qt_5_PRIVATE_API 5.12.2
 _ZNK17QtVirtualKeyboard26HunspellInputMethodPrivate8isJoinerERK5QChar@Qt_5_PRIVATE_API 5.12.2
 _ZTIN17QtVirtualKeyboard19HunspellInputMethodE@Qt_5_PRIVATE_API 5.12.2
 _ZTSN17QtVirtualKeyboard19HunspellInputMethodE@Qt_5_PRIVATE_API 5.12.2
 _ZTVN17QtVirtualKeyboard19HunspellInputMethodE@Qt_5_PRIVATE_API 5.12.2
